
lcd_portB.elf:     file format elf32-avr

Sections:
Idx Name          Size      VMA       LMA       File off  Algn
  0 .text         000001ea  00000000  00000000  00000074  2**1
                  CONTENTS, ALLOC, LOAD, READONLY, CODE
  1 .data         00000024  00800060  000001ea  0000025e  2**0
                  CONTENTS, ALLOC, LOAD, DATA
Disassembly of section .text:

00000000 <__vectors>:
   0:	0c 94 2a 00 	jmp	0x54	; 0x54 <__ctors_end>
   4:	0c 94 47 00 	jmp	0x8e	; 0x8e <__bad_interrupt>
   8:	0c 94 47 00 	jmp	0x8e	; 0x8e <__bad_interrupt>
   c:	0c 94 47 00 	jmp	0x8e	; 0x8e <__bad_interrupt>
  10:	0c 94 47 00 	jmp	0x8e	; 0x8e <__bad_interrupt>
  14:	0c 94 47 00 	jmp	0x8e	; 0x8e <__bad_interrupt>
  18:	0c 94 47 00 	jmp	0x8e	; 0x8e <__bad_interrupt>
  1c:	0c 94 47 00 	jmp	0x8e	; 0x8e <__bad_interrupt>
  20:	0c 94 47 00 	jmp	0x8e	; 0x8e <__bad_interrupt>
  24:	0c 94 47 00 	jmp	0x8e	; 0x8e <__bad_interrupt>
  28:	0c 94 47 00 	jmp	0x8e	; 0x8e <__bad_interrupt>
  2c:	0c 94 47 00 	jmp	0x8e	; 0x8e <__bad_interrupt>
  30:	0c 94 47 00 	jmp	0x8e	; 0x8e <__bad_interrupt>
  34:	0c 94 47 00 	jmp	0x8e	; 0x8e <__bad_interrupt>
  38:	0c 94 47 00 	jmp	0x8e	; 0x8e <__bad_interrupt>
  3c:	0c 94 47 00 	jmp	0x8e	; 0x8e <__bad_interrupt>
  40:	0c 94 47 00 	jmp	0x8e	; 0x8e <__bad_interrupt>
  44:	0c 94 47 00 	jmp	0x8e	; 0x8e <__bad_interrupt>
  48:	0c 94 47 00 	jmp	0x8e	; 0x8e <__bad_interrupt>
  4c:	0c 94 47 00 	jmp	0x8e	; 0x8e <__bad_interrupt>
  50:	0c 94 47 00 	jmp	0x8e	; 0x8e <__bad_interrupt>

00000054 <__ctors_end>:
  54:	11 24       	eor	r1, r1
  56:	1f be       	out	0x3f, r1	; 63
  58:	cf e5       	ldi	r28, 0x5F	; 95
  5a:	d4 e0       	ldi	r29, 0x04	; 4
  5c:	de bf       	out	0x3e, r29	; 62
  5e:	cd bf       	out	0x3d, r28	; 61

00000060 <__do_copy_data>:
  60:	10 e0       	ldi	r17, 0x00	; 0
  62:	a0 e6       	ldi	r26, 0x60	; 96
  64:	b0 e0       	ldi	r27, 0x00	; 0
  66:	ea ee       	ldi	r30, 0xEA	; 234
  68:	f1 e0       	ldi	r31, 0x01	; 1
  6a:	02 c0       	rjmp	.+4      	; 0x70 <.do_copy_data_start>

0000006c <.do_copy_data_loop>:
  6c:	05 90       	lpm	r0, Z+
  6e:	0d 92       	st	X+, r0

00000070 <.do_copy_data_start>:
  70:	a4 38       	cpi	r26, 0x84	; 132
  72:	b1 07       	cpc	r27, r17
  74:	d9 f7       	brne	.-10     	; 0x6c <.do_copy_data_loop>

00000076 <__do_clear_bss>:
  76:	10 e0       	ldi	r17, 0x00	; 0
  78:	a4 e8       	ldi	r26, 0x84	; 132
  7a:	b0 e0       	ldi	r27, 0x00	; 0
  7c:	01 c0       	rjmp	.+2      	; 0x80 <.do_clear_bss_start>

0000007e <.do_clear_bss_loop>:
  7e:	1d 92       	st	X+, r1

00000080 <.do_clear_bss_start>:
  80:	a4 38       	cpi	r26, 0x84	; 132
  82:	b1 07       	cpc	r27, r17
  84:	e1 f7       	brne	.-8      	; 0x7e <.do_clear_bss_loop>
  86:	0e 94 dc 00 	call	0x1b8	; 0x1b8 <main>
  8a:	0c 94 f3 00 	jmp	0x1e6	; 0x1e6 <_exit>

0000008e <__bad_interrupt>:
  8e:	0c 94 00 00 	jmp	0	; 0x0 <__heap_end>

00000092 <_LCD_OutNibble>:
  92:	80 ff       	sbrs	r24, 0
  94:	02 c0       	rjmp	.+4      	; 0x9a <_LCD_OutNibble+0x8>
  96:	c2 9a       	sbi	0x18, 2	; 24
  98:	01 c0       	rjmp	.+2      	; 0x9c <_LCD_OutNibble+0xa>
  9a:	c2 98       	cbi	0x18, 2	; 24
  9c:	81 ff       	sbrs	r24, 1
  9e:	02 c0       	rjmp	.+4      	; 0xa4 <_LCD_OutNibble+0x12>
  a0:	c3 9a       	sbi	0x18, 3	; 24
  a2:	01 c0       	rjmp	.+2      	; 0xa6 <_LCD_OutNibble+0x14>
  a4:	c3 98       	cbi	0x18, 3	; 24
  a6:	82 ff       	sbrs	r24, 2
  a8:	02 c0       	rjmp	.+4      	; 0xae <_LCD_OutNibble+0x1c>
  aa:	c4 9a       	sbi	0x18, 4	; 24
  ac:	01 c0       	rjmp	.+2      	; 0xb0 <_LCD_OutNibble+0x1e>
  ae:	c4 98       	cbi	0x18, 4	; 24
  b0:	83 ff       	sbrs	r24, 3
  b2:	02 c0       	rjmp	.+4      	; 0xb8 <_LCD_OutNibble+0x26>
  b4:	c5 9a       	sbi	0x18, 5	; 24
  b6:	08 95       	ret
  b8:	c5 98       	cbi	0x18, 5	; 24
  ba:	08 95       	ret

000000bc <_LCD_Write>:
  bc:	1f 93       	push	r17
  be:	18 2f       	mov	r17, r24
  c0:	c1 9a       	sbi	0x18, 1	; 24
  c2:	82 95       	swap	r24
  c4:	8f 70       	andi	r24, 0x0F	; 15
  c6:	0e 94 49 00 	call	0x92	; 0x92 <_LCD_OutNibble>
  ca:	c1 98       	cbi	0x18, 1	; 24
  cc:	c1 9a       	sbi	0x18, 1	; 24
  ce:	81 2f       	mov	r24, r17
  d0:	0e 94 49 00 	call	0x92	; 0x92 <_LCD_OutNibble>
  d4:	c1 98       	cbi	0x18, 1	; 24
  d6:	85 e8       	ldi	r24, 0x85	; 133
  d8:	8a 95       	dec	r24
  da:	f1 f7       	brne	.-4      	; 0xd8 <_LCD_Write+0x1c>
  dc:	1f 91       	pop	r17
  de:	08 95       	ret

000000e0 <LCD_WriteCommand>:
  e0:	c0 98       	cbi	0x18, 0	; 24
  e2:	0e 94 5e 00 	call	0xbc	; 0xbc <_LCD_Write>
  e6:	08 95       	ret

000000e8 <LCD_WriteData>:
  e8:	c0 9a       	sbi	0x18, 0	; 24
  ea:	0e 94 5e 00 	call	0xbc	; 0xbc <_LCD_Write>
  ee:	08 95       	ret

000000f0 <LCD_WriteText>:
  f0:	cf 93       	push	r28
  f2:	df 93       	push	r29
  f4:	ec 01       	movw	r28, r24
  f6:	03 c0       	rjmp	.+6      	; 0xfe <LCD_WriteText+0xe>
  f8:	21 96       	adiw	r28, 0x01	; 1
  fa:	0e 94 74 00 	call	0xe8	; 0xe8 <LCD_WriteData>
  fe:	88 81       	ld	r24, Y
 100:	88 23       	and	r24, r24
 102:	d1 f7       	brne	.-12     	; 0xf8 <LCD_WriteText+0x8>
 104:	df 91       	pop	r29
 106:	cf 91       	pop	r28
 108:	08 95       	ret

0000010a <LCD_GoTo>:
 10a:	62 95       	swap	r22
 10c:	66 0f       	add	r22, r22
 10e:	66 0f       	add	r22, r22
 110:	60 7c       	andi	r22, 0xC0	; 192
 112:	68 0f       	add	r22, r24
 114:	86 2f       	mov	r24, r22
 116:	80 68       	ori	r24, 0x80	; 128
 118:	0e 94 70 00 	call	0xe0	; 0xe0 <LCD_WriteCommand>
 11c:	08 95       	ret

0000011e <LCD_Clear>:
 11e:	81 e0       	ldi	r24, 0x01	; 1
 120:	0e 94 70 00 	call	0xe0	; 0xe0 <LCD_WriteCommand>
 124:	80 ea       	ldi	r24, 0xA0	; 160
 126:	9f e0       	ldi	r25, 0x0F	; 15
 128:	01 97       	sbiw	r24, 0x01	; 1
 12a:	f1 f7       	brne	.-4      	; 0x128 <LCD_Clear+0xa>
 12c:	08 95       	ret

0000012e <LCD_Home>:
 12e:	82 e0       	ldi	r24, 0x02	; 2
 130:	0e 94 70 00 	call	0xe0	; 0xe0 <LCD_WriteCommand>
 134:	80 ea       	ldi	r24, 0xA0	; 160
 136:	9f e0       	ldi	r25, 0x0F	; 15
 138:	01 97       	sbiw	r24, 0x01	; 1
 13a:	f1 f7       	brne	.-4      	; 0x138 <LCD_Home+0xa>
 13c:	08 95       	ret

0000013e <LCD_Initalize>:
 13e:	1f 93       	push	r17
 140:	cf 93       	push	r28
 142:	df 93       	push	r29
 144:	ba 9a       	sbi	0x17, 2	; 23
 146:	bb 9a       	sbi	0x17, 3	; 23
 148:	bc 9a       	sbi	0x17, 4	; 23
 14a:	bd 9a       	sbi	0x17, 5	; 23
 14c:	b9 9a       	sbi	0x17, 1	; 23
 14e:	b8 9a       	sbi	0x17, 0	; 23
 150:	80 e3       	ldi	r24, 0x30	; 48
 152:	95 e7       	ldi	r25, 0x75	; 117
 154:	01 97       	sbiw	r24, 0x01	; 1
 156:	f1 f7       	brne	.-4      	; 0x154 <LCD_Initalize+0x16>
 158:	c0 98       	cbi	0x18, 0	; 24
 15a:	c1 98       	cbi	0x18, 1	; 24
 15c:	10 e0       	ldi	r17, 0x00	; 0
 15e:	c0 e1       	ldi	r28, 0x10	; 16
 160:	d7 e2       	ldi	r29, 0x27	; 39
 162:	c1 9a       	sbi	0x18, 1	; 24
 164:	83 e0       	ldi	r24, 0x03	; 3
 166:	0e 94 49 00 	call	0x92	; 0x92 <_LCD_OutNibble>
 16a:	c1 98       	cbi	0x18, 1	; 24
 16c:	ce 01       	movw	r24, r28
 16e:	01 97       	sbiw	r24, 0x01	; 1
 170:	f1 f7       	brne	.-4      	; 0x16e <LCD_Initalize+0x30>
 172:	1f 5f       	subi	r17, 0xFF	; 255
 174:	13 30       	cpi	r17, 0x03	; 3
 176:	a9 f7       	brne	.-22     	; 0x162 <LCD_Initalize+0x24>
 178:	c1 9a       	sbi	0x18, 1	; 24
 17a:	82 e0       	ldi	r24, 0x02	; 2
 17c:	0e 94 49 00 	call	0x92	; 0x92 <_LCD_OutNibble>
 180:	c1 98       	cbi	0x18, 1	; 24
 182:	80 ed       	ldi	r24, 0xD0	; 208
 184:	97 e0       	ldi	r25, 0x07	; 7
 186:	01 97       	sbiw	r24, 0x01	; 1
 188:	f1 f7       	brne	.-4      	; 0x186 <LCD_Initalize+0x48>
 18a:	88 e2       	ldi	r24, 0x28	; 40
 18c:	0e 94 70 00 	call	0xe0	; 0xe0 <LCD_WriteCommand>
 190:	88 e0       	ldi	r24, 0x08	; 8
 192:	0e 94 70 00 	call	0xe0	; 0xe0 <LCD_WriteCommand>
 196:	81 e0       	ldi	r24, 0x01	; 1
 198:	0e 94 70 00 	call	0xe0	; 0xe0 <LCD_WriteCommand>
 19c:	80 ea       	ldi	r24, 0xA0	; 160
 19e:	9f e0       	ldi	r25, 0x0F	; 15
 1a0:	01 97       	sbiw	r24, 0x01	; 1
 1a2:	f1 f7       	brne	.-4      	; 0x1a0 <LCD_Initalize+0x62>
 1a4:	86 e0       	ldi	r24, 0x06	; 6
 1a6:	0e 94 70 00 	call	0xe0	; 0xe0 <LCD_WriteCommand>
 1aa:	8c e0       	ldi	r24, 0x0C	; 12
 1ac:	0e 94 70 00 	call	0xe0	; 0xe0 <LCD_WriteCommand>
 1b0:	df 91       	pop	r29
 1b2:	cf 91       	pop	r28
 1b4:	1f 91       	pop	r17
 1b6:	08 95       	ret

000001b8 <main>:
 1b8:	0e 94 9f 00 	call	0x13e	; 0x13e <LCD_Initalize>
 1bc:	0e 94 97 00 	call	0x12e	; 0x12e <LCD_Home>
 1c0:	0e 94 8f 00 	call	0x11e	; 0x11e <LCD_Clear>
 1c4:	60 e0       	ldi	r22, 0x00	; 0
 1c6:	80 e0       	ldi	r24, 0x00	; 0
 1c8:	0e 94 85 00 	call	0x10a	; 0x10a <LCD_GoTo>
 1cc:	80 e6       	ldi	r24, 0x60	; 96
 1ce:	90 e0       	ldi	r25, 0x00	; 0
 1d0:	0e 94 78 00 	call	0xf0	; 0xf0 <LCD_WriteText>
 1d4:	61 e0       	ldi	r22, 0x01	; 1
 1d6:	80 e0       	ldi	r24, 0x00	; 0
 1d8:	0e 94 85 00 	call	0x10a	; 0x10a <LCD_GoTo>
 1dc:	81 e7       	ldi	r24, 0x71	; 113
 1de:	90 e0       	ldi	r25, 0x00	; 0
 1e0:	0e 94 78 00 	call	0xf0	; 0xf0 <LCD_WriteText>
 1e4:	ff cf       	rjmp	.-2      	; 0x1e4 <main+0x2c>

000001e6 <_exit>:
 1e6:	f8 94       	cli

000001e8 <__stop_program>:
 1e8:	ff cf       	rjmp	.-2      	; 0x1e8 <__stop_program>
